ARM GAS  /tmp/ccckX2oC.s 			page 1


   1              		.cpu cortex-m3
   2              		.arch armv7-m
   3              		.fpu softvfp
   4              		.eabi_attribute 20, 1
   5              		.eabi_attribute 21, 1
   6              		.eabi_attribute 23, 3
   7              		.eabi_attribute 24, 1
   8              		.eabi_attribute 25, 1
   9              		.eabi_attribute 26, 1
  10              		.eabi_attribute 30, 1
  11              		.eabi_attribute 34, 1
  12              		.eabi_attribute 18, 4
  13              		.file	"debug.c"
  14              		.text
  15              	.Ltext0:
  16              		.cfi_sections	.debug_frame
  17              		.file 1 "Libs/debug/debug.c"
  18              		.section	.text.Debug_print,"ax",%progbits
  19              		.align	1
  20              		.global	Debug_print
  21              		.syntax unified
  22              		.thumb
  23              		.thumb_func
  25              	Debug_print:
  26              	.LVL0:
  27              	.LFB65:
   1:Libs/debug/debug.c **** #include "debug.h"
   2:Libs/debug/debug.c **** 
   3:Libs/debug/debug.c **** char debug_buffer[DEBUG_BUFFER_SIZE];
   4:Libs/debug/debug.c **** 
   5:Libs/debug/debug.c **** void Debug_print(char *string)
   6:Libs/debug/debug.c **** {
  28              		.loc 1 6 1 view -0
  29              		.cfi_startproc
  30              		@ args = 0, pretend = 0, frame = 0
  31              		@ frame_needed = 0, uses_anonymous_args = 0
  32              		.loc 1 6 1 is_stmt 0 view .LVU1
  33 0000 10B5     		push	{r4, lr}
  34              	.LCFI0:
  35              		.cfi_def_cfa_offset 8
  36              		.cfi_offset 4, -8
  37              		.cfi_offset 14, -4
  38 0002 0446     		mov	r4, r0
   7:Libs/debug/debug.c **** 	uint8_t len = strlen (string);
  39              		.loc 1 7 2 is_stmt 1 view .LVU2
  40              		.loc 1 7 16 is_stmt 0 view .LVU3
  41 0004 FFF7FEFF 		bl	strlen
  42              	.LVL1:
   8:Libs/debug/debug.c **** 	HAL_UART_Transmit(&huart1, (uint8_t *) string, len, HAL_MAX_DELAY);  // transmit in blocking mode
  43              		.loc 1 8 2 is_stmt 1 view .LVU4
  44 0008 4FF0FF33 		mov	r3, #-1
  45 000c C2B2     		uxtb	r2, r0
  46 000e 2146     		mov	r1, r4
  47 0010 0148     		ldr	r0, .L3
  48              	.LVL2:
  49              		.loc 1 8 2 is_stmt 0 view .LVU5
  50 0012 FFF7FEFF 		bl	HAL_UART_Transmit
ARM GAS  /tmp/ccckX2oC.s 			page 2


  51              	.LVL3:
   9:Libs/debug/debug.c **** }
  52              		.loc 1 9 1 view .LVU6
  53 0016 10BD     		pop	{r4, pc}
  54              	.LVL4:
  55              	.L4:
  56              		.loc 1 9 1 view .LVU7
  57              		.align	2
  58              	.L3:
  59 0018 00000000 		.word	huart1
  60              		.cfi_endproc
  61              	.LFE65:
  63              		.section	.text.Debug_clear_buffer,"ax",%progbits
  64              		.align	1
  65              		.global	Debug_clear_buffer
  66              		.syntax unified
  67              		.thumb
  68              		.thumb_func
  70              	Debug_clear_buffer:
  71              	.LFB66:
  10:Libs/debug/debug.c **** 
  11:Libs/debug/debug.c **** void Debug_clear_buffer () {
  72              		.loc 1 11 28 is_stmt 1 view -0
  73              		.cfi_startproc
  74              		@ args = 0, pretend = 0, frame = 0
  75              		@ frame_needed = 0, uses_anonymous_args = 0
  76              		@ link register save eliminated.
  12:Libs/debug/debug.c **** 	for (int i=0; i<DEBUG_BUFFER_SIZE; i++) debug_buffer[i] = '\0';
  77              		.loc 1 12 2 view .LVU9
  78              	.LBB2:
  79              		.loc 1 12 7 view .LVU10
  80              	.LVL5:
  81              		.loc 1 12 11 is_stmt 0 view .LVU11
  82 0000 0023     		movs	r3, #0
  83              		.loc 1 12 2 view .LVU12
  84 0002 03E0     		b	.L6
  85              	.LVL6:
  86              	.L7:
  87              		.loc 1 12 42 is_stmt 1 discriminator 3 view .LVU13
  88              		.loc 1 12 58 is_stmt 0 discriminator 3 view .LVU14
  89 0004 034A     		ldr	r2, .L8
  90 0006 0021     		movs	r1, #0
  91 0008 D154     		strb	r1, [r2, r3]
  92              		.loc 1 12 38 is_stmt 1 discriminator 3 view .LVU15
  93 000a 0133     		adds	r3, r3, #1
  94              	.LVL7:
  95              	.L6:
  96              		.loc 1 12 17 discriminator 1 view .LVU16
  97 000c 7F2B     		cmp	r3, #127
  98 000e F9DD     		ble	.L7
  99              	.LBE2:
  13:Libs/debug/debug.c **** }
 100              		.loc 1 13 1 is_stmt 0 view .LVU17
 101 0010 7047     		bx	lr
 102              	.L9:
 103 0012 00BF     		.align	2
 104              	.L8:
ARM GAS  /tmp/ccckX2oC.s 			page 3


 105 0014 00000000 		.word	debug_buffer
 106              		.cfi_endproc
 107              	.LFE66:
 109              		.section	.rodata.Debug_HAL_function_assert.str1.4,"aMS",%progbits,1
 110              		.align	2
 111              	.LC0:
 112 0000 42412C53 		.ascii	"BA,SM,Error State Reached,JA\015\012\000"
 112      4D2C4572 
 112      726F7220 
 112      53746174 
 112      65205265 
 113              		.section	.text.Debug_HAL_function_assert,"ax",%progbits
 114              		.align	1
 115              		.global	Debug_HAL_function_assert
 116              		.syntax unified
 117              		.thumb
 118              		.thumb_func
 120              	Debug_HAL_function_assert:
 121              	.LVL8:
 122              	.LFB67:
  14:Libs/debug/debug.c **** 
  15:Libs/debug/debug.c **** void Debug_HAL_function_assert(HAL_StatusTypeDef res)
  16:Libs/debug/debug.c **** {
 123              		.loc 1 16 1 is_stmt 1 view -0
 124              		.cfi_startproc
 125              		@ args = 0, pretend = 0, frame = 0
 126              		@ frame_needed = 0, uses_anonymous_args = 0
  17:Libs/debug/debug.c **** 	if (res != HAL_OK) {
 127              		.loc 1 17 2 view .LVU19
 128              		.loc 1 17 5 is_stmt 0 view .LVU20
 129 0000 00B9     		cbnz	r0, .L16
 130 0002 7047     		bx	lr
 131              	.L16:
  16:Libs/debug/debug.c **** 	if (res != HAL_OK) {
 132              		.loc 1 16 1 view .LVU21
 133 0004 08B5     		push	{r3, lr}
 134              	.LCFI1:
 135              		.cfi_def_cfa_offset 8
 136              		.cfi_offset 3, -8
 137              		.cfi_offset 14, -4
  18:Libs/debug/debug.c **** 		Debug_print("BA,SM,Error State Reached,JA\r\n");
 138              		.loc 1 18 3 is_stmt 1 view .LVU22
 139 0006 0448     		ldr	r0, .L17
 140              	.LVL9:
 141              		.loc 1 18 3 is_stmt 0 view .LVU23
 142 0008 FFF7FEFF 		bl	Debug_print
 143              	.LVL10:
 144              	.L12:
  19:Libs/debug/debug.c **** 		while (1) {
 145              		.loc 1 19 3 is_stmt 1 view .LVU24
  20:Libs/debug/debug.c **** 			HAL_Delay(1000);
 146              		.loc 1 20 4 discriminator 1 view .LVU25
 147 000c 4FF47A70 		mov	r0, #1000
 148 0010 FFF7FEFF 		bl	HAL_Delay
 149              	.LVL11:
  19:Libs/debug/debug.c **** 		while (1) {
 150              		.loc 1 19 9 view .LVU26
ARM GAS  /tmp/ccckX2oC.s 			page 4


 151 0014 FAE7     		b	.L12
 152              	.L18:
 153 0016 00BF     		.align	2
 154              	.L17:
 155 0018 00000000 		.word	.LC0
 156              		.cfi_endproc
 157              	.LFE67:
 159              		.global	debug_buffer
 160              		.section	.bss.debug_buffer,"aw",%nobits
 161              		.align	2
 164              	debug_buffer:
 165 0000 00000000 		.space	128
 165      00000000 
 165      00000000 
 165      00000000 
 165      00000000 
 166              		.text
 167              	.Letext0:
 168              		.file 2 "/opt/gcc-arm/arm-none-eabi/include/machine/_default_types.h"
 169              		.file 3 "/opt/gcc-arm/arm-none-eabi/include/sys/_stdint.h"
 170              		.file 4 "Drivers/CMSIS/Device/ST/STM32F1xx/Include/stm32f103xb.h"
 171              		.file 5 "/opt/gcc-arm/lib/gcc/arm-none-eabi/14.2.1/include/stddef.h"
 172              		.file 6 "Drivers/STM32F1xx_HAL_Driver/Inc/stm32f1xx_hal_def.h"
 173              		.file 7 "Drivers/STM32F1xx_HAL_Driver/Inc/stm32f1xx_hal_dma.h"
 174              		.file 8 "Drivers/STM32F1xx_HAL_Driver/Inc/stm32f1xx_hal_uart.h"
 175              		.file 9 "Libs/debug/debug.h"
 176              		.file 10 "/opt/gcc-arm/arm-none-eabi/include/string.h"
 177              		.file 11 "Drivers/STM32F1xx_HAL_Driver/Inc/stm32f1xx_hal.h"
ARM GAS  /tmp/ccckX2oC.s 			page 5

