ARM GAS  /tmp/ccjn4Vtk.s 			page 1


   1              		.cpu cortex-m3
   2              		.arch armv7-m
   3              		.fpu softvfp
   4              		.eabi_attribute 20, 1
   5              		.eabi_attribute 21, 1
   6              		.eabi_attribute 23, 3
   7              		.eabi_attribute 24, 1
   8              		.eabi_attribute 25, 1
   9              		.eabi_attribute 26, 1
  10              		.eabi_attribute 30, 1
  11              		.eabi_attribute 34, 1
  12              		.eabi_attribute 18, 4
  13              		.file	"Cu_main.c"
  14              		.text
  15              	.Ltext0:
  16              		.cfi_sections	.debug_frame
  17              		.file 1 "Cu_main/Cu_main.c"
  18              		.section	.text.Cu_main,"ax",%progbits
  19              		.align	1
  20              		.global	Cu_main
  21              		.syntax unified
  22              		.thumb
  23              		.thumb_func
  25              	Cu_main:
  26              	.LFB65:
   1:Cu_main/Cu_main.c **** #include "main.h"
   2:Cu_main/Cu_main.c **** #include "can_al.h"
   3:Cu_main/Cu_main.c **** #include "rpm.h"
   4:Cu_main/Cu_main.c **** 
   5:Cu_main/Cu_main.c **** CAN_ConnectionTypeDef CAN;
   6:Cu_main/Cu_main.c **** extern TIM_HandleTypeDef htim1;
   7:Cu_main/Cu_main.c **** extern TIM_HandleTypeDef htim2;
   8:Cu_main/Cu_main.c **** extern TIM_HandleTypeDef htim3;
   9:Cu_main/Cu_main.c **** 
  10:Cu_main/Cu_main.c **** uint16_t rpm_data[4];
  11:Cu_main/Cu_main.c **** 
  12:Cu_main/Cu_main.c **** void Cu_main(){
  27              		.loc 1 12 15 view -0
  28              		.cfi_startproc
  29              		@ Volatile: function does not return.
  30              		@ args = 0, pretend = 0, frame = 8
  31              		@ frame_needed = 0, uses_anonymous_args = 0
  32 0000 00B5     		push	{lr}
  33              	.LCFI0:
  34              		.cfi_def_cfa_offset 4
  35              		.cfi_offset 14, -4
  36 0002 83B0     		sub	sp, sp, #12
  37              	.LCFI1:
  38              		.cfi_def_cfa_offset 16
  13:Cu_main/Cu_main.c ****     uint16_t ids[] = {0x40};
  39              		.loc 1 13 5 view .LVU1
  40              		.loc 1 13 14 is_stmt 0 view .LVU2
  41 0004 4023     		movs	r3, #64
  42 0006 ADF80430 		strh	r3, [sp, #4]	@ movhi
  14:Cu_main/Cu_main.c ****     CAN_Add_Filter_Discrete(&CAN, 1, ids);
  43              		.loc 1 14 5 is_stmt 1 view .LVU3
  44 000a 164C     		ldr	r4, .L5
ARM GAS  /tmp/ccjn4Vtk.s 			page 2


  45 000c 01AA     		add	r2, sp, #4
  46 000e 0121     		movs	r1, #1
  47 0010 2046     		mov	r0, r4
  48 0012 FFF7FEFF 		bl	CAN_Add_Filter_Discrete
  49              	.LVL0:
  15:Cu_main/Cu_main.c ****     CAN_Start(&CAN, 0x59D);
  50              		.loc 1 15 5 view .LVU4
  51 0016 40F29D51 		movw	r1, #1437
  52 001a 2046     		mov	r0, r4
  53 001c FFF7FEFF 		bl	CAN_Start
  54              	.LVL1:
  16:Cu_main/Cu_main.c ****     RPM_Init();
  55              		.loc 1 16 5 view .LVU5
  56 0020 FFF7FEFF 		bl	RPM_Init
  57              	.LVL2:
  17:Cu_main/Cu_main.c ****     CAN_Send(&CAN, 8);
  58              		.loc 1 17 5 view .LVU6
  59 0024 0821     		movs	r1, #8
  60 0026 2046     		mov	r0, r4
  61 0028 FFF7FEFF 		bl	CAN_Send
  62              	.LVL3:
  18:Cu_main/Cu_main.c ****     HAL_TIM_Base_Start(&htim1);
  63              		.loc 1 18 5 view .LVU7
  64 002c 0E48     		ldr	r0, .L5+4
  65 002e FFF7FEFF 		bl	HAL_TIM_Base_Start
  66              	.LVL4:
  19:Cu_main/Cu_main.c ****     HAL_TIM_Base_Start(&htim2);
  67              		.loc 1 19 5 view .LVU8
  68 0032 0E48     		ldr	r0, .L5+8
  69 0034 FFF7FEFF 		bl	HAL_TIM_Base_Start
  70              	.LVL5:
  20:Cu_main/Cu_main.c ****     HAL_TIM_Base_Start_IT(&htim3);
  71              		.loc 1 20 5 view .LVU9
  72 0038 0D48     		ldr	r0, .L5+12
  73 003a FFF7FEFF 		bl	HAL_TIM_Base_Start_IT
  74              	.LVL6:
  21:Cu_main/Cu_main.c **** 
  22:Cu_main/Cu_main.c ****     RPM_set_pulses_per_rev(0, 1);
  75              		.loc 1 22 5 view .LVU10
  76 003e 0121     		movs	r1, #1
  77 0040 0020     		movs	r0, #0
  78 0042 FFF7FEFF 		bl	RPM_set_pulses_per_rev
  79              	.LVL7:
  23:Cu_main/Cu_main.c ****     RPM_set_pulses_per_rev(1, 4);
  80              		.loc 1 23 5 view .LVU11
  81 0046 0421     		movs	r1, #4
  82 0048 0120     		movs	r0, #1
  83 004a FFF7FEFF 		bl	RPM_set_pulses_per_rev
  84              	.LVL8:
  85              	.L2:
  24:Cu_main/Cu_main.c **** 
  25:Cu_main/Cu_main.c ****     while(1){
  86              		.loc 1 25 5 view .LVU12
  26:Cu_main/Cu_main.c ****         if(RPM_EXTI_FLAG){
  87              		.loc 1 26 9 view .LVU13
  88              		.loc 1 26 12 is_stmt 0 view .LVU14
  89 004e 094B     		ldr	r3, .L5+16
ARM GAS  /tmp/ccjn4Vtk.s 			page 3


  90 0050 1B68     		ldr	r3, [r3]
  91              		.loc 1 26 11 view .LVU15
  92 0052 002B     		cmp	r3, #0
  93 0054 FBD0     		beq	.L2
  27:Cu_main/Cu_main.c ****             RPM_Update();
  94              		.loc 1 27 13 is_stmt 1 view .LVU16
  95 0056 FFF7FEFF 		bl	RPM_Update
  96              	.LVL9:
  28:Cu_main/Cu_main.c ****             RPM_EXTI_FLAG = 0;
  97              		.loc 1 28 13 view .LVU17
  98              		.loc 1 28 27 is_stmt 0 view .LVU18
  99 005a 064B     		ldr	r3, .L5+16
 100 005c 0022     		movs	r2, #0
 101 005e 1A60     		str	r2, [r3]
 102 0060 F5E7     		b	.L2
 103              	.L6:
 104 0062 00BF     		.align	2
 105              	.L5:
 106 0064 00000000 		.word	CAN
 107 0068 00000000 		.word	htim1
 108 006c 00000000 		.word	htim2
 109 0070 00000000 		.word	htim3
 110 0074 00000000 		.word	RPM_EXTI_FLAG
 111              		.cfi_endproc
 112              	.LFE65:
 114              		.section	.text.HAL_TIM_PeriodElapsedCallback,"ax",%progbits
 115              		.align	1
 116              		.global	HAL_TIM_PeriodElapsedCallback
 117              		.syntax unified
 118              		.thumb
 119              		.thumb_func
 121              	HAL_TIM_PeriodElapsedCallback:
 122              	.LVL10:
 123              	.LFB66:
  29:Cu_main/Cu_main.c ****         }
  30:Cu_main/Cu_main.c ****     }
  31:Cu_main/Cu_main.c **** }
  32:Cu_main/Cu_main.c **** 
  33:Cu_main/Cu_main.c **** 
  34:Cu_main/Cu_main.c **** void HAL_TIM_PeriodElapsedCallback(TIM_HandleTypeDef* htim){
 124              		.loc 1 34 60 is_stmt 1 view -0
 125              		.cfi_startproc
 126              		@ args = 0, pretend = 0, frame = 0
 127              		@ frame_needed = 0, uses_anonymous_args = 0
  35:Cu_main/Cu_main.c **** 
  36:Cu_main/Cu_main.c ****     if(htim != &htim3) return;
 128              		.loc 1 36 5 view .LVU20
 129              		.loc 1 36 7 is_stmt 0 view .LVU21
 130 0000 0C4B     		ldr	r3, .L14
 131 0002 8342     		cmp	r3, r0
 132 0004 00D0     		beq	.L13
 133 0006 7047     		bx	lr
 134              	.L13:
  34:Cu_main/Cu_main.c **** 
 135              		.loc 1 34 60 view .LVU22
 136 0008 10B5     		push	{r4, lr}
 137              	.LCFI2:
ARM GAS  /tmp/ccjn4Vtk.s 			page 4


 138              		.cfi_def_cfa_offset 8
 139              		.cfi_offset 4, -8
 140              		.cfi_offset 14, -4
  37:Cu_main/Cu_main.c **** 
  38:Cu_main/Cu_main.c ****     rpm_data[0] = rpms[0].current_rpm;
 141              		.loc 1 38 5 is_stmt 1 view .LVU23
 142              		.loc 1 38 26 is_stmt 0 view .LVU24
 143 000a 0B4B     		ldr	r3, .L14+4
 144 000c 1988     		ldrh	r1, [r3]
 145              		.loc 1 38 17 view .LVU25
 146 000e 0B4A     		ldr	r2, .L14+8
 147 0010 1180     		strh	r1, [r2]	@ movhi
  39:Cu_main/Cu_main.c ****     rpm_data[1] = rpms[1].current_rpm;
 148              		.loc 1 39 5 is_stmt 1 view .LVU26
 149              		.loc 1 39 26 is_stmt 0 view .LVU27
 150 0012 198A     		ldrh	r1, [r3, #16]
 151              		.loc 1 39 17 view .LVU28
 152 0014 5180     		strh	r1, [r2, #2]	@ movhi
  40:Cu_main/Cu_main.c ****     rpm_data[2] = rpms[2].current_rpm;
 153              		.loc 1 40 5 is_stmt 1 view .LVU29
 154              		.loc 1 40 26 is_stmt 0 view .LVU30
 155 0016 198C     		ldrh	r1, [r3, #32]
 156              		.loc 1 40 17 view .LVU31
 157 0018 9180     		strh	r1, [r2, #4]	@ movhi
  41:Cu_main/Cu_main.c ****     rpm_data[3] = rpms[3].current_rpm;
 158              		.loc 1 41 5 is_stmt 1 view .LVU32
 159              		.loc 1 41 26 is_stmt 0 view .LVU33
 160 001a 1B8E     		ldrh	r3, [r3, #48]
 161              		.loc 1 41 17 view .LVU34
 162 001c D380     		strh	r3, [r2, #6]	@ movhi
  42:Cu_main/Cu_main.c **** 
  43:Cu_main/Cu_main.c ****     CAN_Pack_TX_2Byte(&CAN, 4, rpm_data);
 163              		.loc 1 43 5 is_stmt 1 view .LVU35
 164 001e 084C     		ldr	r4, .L14+12
 165 0020 0421     		movs	r1, #4
 166 0022 2046     		mov	r0, r4
 167              	.LVL11:
 168              		.loc 1 43 5 is_stmt 0 view .LVU36
 169 0024 FFF7FEFF 		bl	CAN_Pack_TX_2Byte
 170              	.LVL12:
  44:Cu_main/Cu_main.c **** 
  45:Cu_main/Cu_main.c ****     CAN_Send(&CAN, 8);
 171              		.loc 1 45 5 is_stmt 1 view .LVU37
 172 0028 0821     		movs	r1, #8
 173 002a 2046     		mov	r0, r4
 174 002c FFF7FEFF 		bl	CAN_Send
 175              	.LVL13:
  46:Cu_main/Cu_main.c **** }
 176              		.loc 1 46 1 is_stmt 0 view .LVU38
 177 0030 10BD     		pop	{r4, pc}
 178              	.L15:
 179 0032 00BF     		.align	2
 180              	.L14:
 181 0034 00000000 		.word	htim3
 182 0038 00000000 		.word	rpms
 183 003c 00000000 		.word	rpm_data
 184 0040 00000000 		.word	CAN
ARM GAS  /tmp/ccjn4Vtk.s 			page 5


 185              		.cfi_endproc
 186              	.LFE66:
 188              		.global	rpm_data
 189              		.section	.bss.rpm_data,"aw",%nobits
 190              		.align	2
 193              	rpm_data:
 194 0000 00000000 		.space	8
 194      00000000 
 195              		.global	CAN
 196              		.section	.bss.CAN,"aw",%nobits
 197              		.align	2
 200              	CAN:
 201 0000 00000000 		.space	72
 201      00000000 
 201      00000000 
 201      00000000 
 201      00000000 
 202              		.text
 203              	.Letext0:
 204              		.file 2 "/opt/gcc-arm/arm-none-eabi/include/machine/_default_types.h"
 205              		.file 3 "/opt/gcc-arm/arm-none-eabi/include/sys/_stdint.h"
 206              		.file 4 "Drivers/CMSIS/Device/ST/STM32F1xx/Include/stm32f103xb.h"
 207              		.file 5 "Drivers/CMSIS/Device/ST/STM32F1xx/Include/stm32f1xx.h"
 208              		.file 6 "Drivers/STM32F1xx_HAL_Driver/Inc/stm32f1xx_hal_def.h"
 209              		.file 7 "Drivers/STM32F1xx_HAL_Driver/Inc/stm32f1xx_hal_dma.h"
 210              		.file 8 "Drivers/STM32F1xx_HAL_Driver/Inc/stm32f1xx_hal_can.h"
 211              		.file 9 "Drivers/STM32F1xx_HAL_Driver/Inc/stm32f1xx_hal_tim.h"
 212              		.file 10 "Libs/can_al/can_al.h"
 213              		.file 11 "Libs/rpm/rpm.h"
ARM GAS  /tmp/ccjn4Vtk.s 			page 6

