ARM GAS  /tmp/ccRR30nG.s 			page 1


   1              		.cpu cortex-m3
   2              		.arch armv7-m
   3              		.fpu softvfp
   4              		.eabi_attribute 20, 1
   5              		.eabi_attribute 21, 1
   6              		.eabi_attribute 23, 3
   7              		.eabi_attribute 24, 1
   8              		.eabi_attribute 25, 1
   9              		.eabi_attribute 26, 1
  10              		.eabi_attribute 30, 1
  11              		.eabi_attribute 34, 1
  12              		.eabi_attribute 18, 4
  13              		.file	"Cu_main.c"
  14              		.text
  15              	.Ltext0:
  16              		.cfi_sections	.debug_frame
  17              		.file 1 "Cu_main/Cu_main.c"
  18              		.section	.text.Cu_main,"ax",%progbits
  19              		.align	1
  20              		.global	Cu_main
  21              		.syntax unified
  22              		.thumb
  23              		.thumb_func
  25              	Cu_main:
  26              	.LFB65:
   1:Cu_main/Cu_main.c **** #include "main.h"
   2:Cu_main/Cu_main.c **** #include "can_al.h"
   3:Cu_main/Cu_main.c **** 
   4:Cu_main/Cu_main.c **** CAN_ConnectionTypeDef CAN;
   5:Cu_main/Cu_main.c **** 
   6:Cu_main/Cu_main.c **** 
   7:Cu_main/Cu_main.c **** void Cu_main(){
  27              		.loc 1 7 15 view -0
  28              		.cfi_startproc
  29              		@ args = 0, pretend = 0, frame = 16
  30              		@ frame_needed = 0, uses_anonymous_args = 0
  31 0000 30B5     		push	{r4, r5, lr}
  32              	.LCFI0:
  33              		.cfi_def_cfa_offset 12
  34              		.cfi_offset 4, -12
  35              		.cfi_offset 5, -8
  36              		.cfi_offset 14, -4
  37 0002 85B0     		sub	sp, sp, #20
  38              	.LCFI1:
  39              		.cfi_def_cfa_offset 32
   8:Cu_main/Cu_main.c ****     HAL_GPIO_WritePin(GPIOC, GPIO_PIN_13, GPIO_PIN_SET);
  40              		.loc 1 8 5 view .LVU1
  41 0004 0122     		movs	r2, #1
  42 0006 4FF40051 		mov	r1, #8192
  43 000a 1B48     		ldr	r0, .L8
  44 000c FFF7FEFF 		bl	HAL_GPIO_WritePin
  45              	.LVL0:
   9:Cu_main/Cu_main.c **** 
  10:Cu_main/Cu_main.c ****     uint16_t ids[] = {0x447, 0x449, 0x1, 0x2, 0x3, 0x445};
  46              		.loc 1 10 5 view .LVU2
  47              		.loc 1 10 14 is_stmt 0 view .LVU3
  48 0010 1A4A     		ldr	r2, .L8+4
ARM GAS  /tmp/ccRR30nG.s 			page 2


  49 0012 01AB     		add	r3, sp, #4
  50 0014 07CA     		ldm	r2, {r0, r1, r2}
  51 0016 83E80700 		stm	r3, {r0, r1, r2}
  11:Cu_main/Cu_main.c ****     CAN_Add_Filter_Discrete(&CAN, 6, ids);
  52              		.loc 1 11 5 is_stmt 1 view .LVU4
  53 001a 194C     		ldr	r4, .L8+8
  54 001c 1A46     		mov	r2, r3
  55 001e 0621     		movs	r1, #6
  56 0020 2046     		mov	r0, r4
  57 0022 FFF7FEFF 		bl	CAN_Add_Filter_Discrete
  58              	.LVL1:
  12:Cu_main/Cu_main.c **** 
  13:Cu_main/Cu_main.c ****     CAN_Start(&CAN, 0x447);
  59              		.loc 1 13 5 view .LVU5
  60 0026 40F24741 		movw	r1, #1095
  61 002a 2046     		mov	r0, r4
  62 002c FFF7FEFF 		bl	CAN_Start
  63              	.LVL2:
  64              	.L3:
  14:Cu_main/Cu_main.c **** 
  15:Cu_main/Cu_main.c ****     while(1){
  65              		.loc 1 15 5 view .LVU6
  16:Cu_main/Cu_main.c ****         if(CAN_ISR_FLAG){
  66              		.loc 1 16 9 view .LVU7
  67              		.loc 1 16 12 is_stmt 0 view .LVU8
  68 0030 144B     		ldr	r3, .L8+12
  69 0032 1B68     		ldr	r3, [r3]
  70              		.loc 1 16 11 view .LVU9
  71 0034 002B     		cmp	r3, #0
  72 0036 FBD0     		beq	.L3
  73              	.LBB2:
  17:Cu_main/Cu_main.c ****             for(int i=0; i < CAN.RxData[0] + CAN.RxData[1]; i++){
  74              		.loc 1 17 21 view .LVU10
  75 0038 0024     		movs	r4, #0
  76              	.L2:
  77              	.LVL3:
  78              		.loc 1 17 28 is_stmt 1 discriminator 1 view .LVU11
  79              		.loc 1 17 40 is_stmt 0 discriminator 1 view .LVU12
  80 003a 114A     		ldr	r2, .L8+8
  81 003c 92F85830 		ldrb	r3, [r2, #88]	@ zero_extendqisi2
  82              		.loc 1 17 56 discriminator 1 view .LVU13
  83 0040 92F85920 		ldrb	r2, [r2, #89]	@ zero_extendqisi2
  84              		.loc 1 17 44 discriminator 1 view .LVU14
  85 0044 1344     		add	r3, r3, r2
  86              		.loc 1 17 28 discriminator 1 view .LVU15
  87 0046 A342     		cmp	r3, r4
  88 0048 03DC     		bgt	.L4
  89              	.LBE2:
  18:Cu_main/Cu_main.c ****                 HAL_GPIO_TogglePin(GPIOC, GPIO_PIN_13);
  19:Cu_main/Cu_main.c ****                 HAL_Delay(200);
  20:Cu_main/Cu_main.c ****                 HAL_GPIO_TogglePin(GPIOC, GPIO_PIN_13);
  21:Cu_main/Cu_main.c ****                 HAL_Delay(200);
  22:Cu_main/Cu_main.c ****             }
  23:Cu_main/Cu_main.c ****             CAN_ISR_FLAG = 0;
  90              		.loc 1 23 13 is_stmt 1 view .LVU16
  91              		.loc 1 23 26 is_stmt 0 view .LVU17
  92 004a 0E4B     		ldr	r3, .L8+12
ARM GAS  /tmp/ccRR30nG.s 			page 3


  93 004c 0022     		movs	r2, #0
  94 004e 1A60     		str	r2, [r3]
  95 0050 EEE7     		b	.L3
  96              	.L4:
  97              	.LBB3:
  18:Cu_main/Cu_main.c ****                 HAL_GPIO_TogglePin(GPIOC, GPIO_PIN_13);
  98              		.loc 1 18 17 is_stmt 1 view .LVU18
  99 0052 094D     		ldr	r5, .L8
 100 0054 4FF40051 		mov	r1, #8192
 101 0058 2846     		mov	r0, r5
 102 005a FFF7FEFF 		bl	HAL_GPIO_TogglePin
 103              	.LVL4:
  19:Cu_main/Cu_main.c ****                 HAL_GPIO_TogglePin(GPIOC, GPIO_PIN_13);
 104              		.loc 1 19 17 view .LVU19
 105 005e C820     		movs	r0, #200
 106 0060 FFF7FEFF 		bl	HAL_Delay
 107              	.LVL5:
  20:Cu_main/Cu_main.c ****                 HAL_Delay(200);
 108              		.loc 1 20 17 view .LVU20
 109 0064 4FF40051 		mov	r1, #8192
 110 0068 2846     		mov	r0, r5
 111 006a FFF7FEFF 		bl	HAL_GPIO_TogglePin
 112              	.LVL6:
  21:Cu_main/Cu_main.c ****             }
 113              		.loc 1 21 17 view .LVU21
 114 006e C820     		movs	r0, #200
 115 0070 FFF7FEFF 		bl	HAL_Delay
 116              	.LVL7:
  17:Cu_main/Cu_main.c ****                 HAL_GPIO_TogglePin(GPIOC, GPIO_PIN_13);
 117              		.loc 1 17 62 discriminator 3 view .LVU22
 118 0074 0134     		adds	r4, r4, #1
 119              	.LVL8:
  17:Cu_main/Cu_main.c ****                 HAL_GPIO_TogglePin(GPIOC, GPIO_PIN_13);
 120              		.loc 1 17 62 is_stmt 0 discriminator 3 view .LVU23
 121 0076 E0E7     		b	.L2
 122              	.L9:
 123              		.align	2
 124              	.L8:
 125 0078 00100140 		.word	1073811456
 126 007c 00000000 		.word	.LANCHOR0
 127 0080 00000000 		.word	CAN
 128 0084 00000000 		.word	CAN_ISR_FLAG
 129              	.LBE3:
 130              		.cfi_endproc
 131              	.LFE65:
 133              		.global	CAN
 134              		.section	.bss.CAN,"aw",%nobits
 135              		.align	2
 138              	CAN:
 139 0000 00000000 		.space	96
 139      00000000 
 139      00000000 
 139      00000000 
 139      00000000 
 140              		.section	.rodata
 141              		.align	2
 142              		.set	.LANCHOR0,. + 0
ARM GAS  /tmp/ccRR30nG.s 			page 4


 143              	.LC0:
 144 0000 4704     		.short	1095
 145 0002 4904     		.short	1097
 146 0004 0100     		.short	1
 147 0006 0200     		.short	2
 148 0008 0300     		.short	3
 149 000a 4504     		.short	1093
 150              		.text
 151              	.Letext0:
 152              		.file 2 "/opt/gcc-arm/arm-none-eabi/include/machine/_default_types.h"
 153              		.file 3 "/opt/gcc-arm/arm-none-eabi/include/sys/_stdint.h"
 154              		.file 4 "Drivers/CMSIS/Device/ST/STM32F1xx/Include/stm32f103xb.h"
 155              		.file 5 "Drivers/CMSIS/Device/ST/STM32F1xx/Include/stm32f1xx.h"
 156              		.file 6 "Drivers/STM32F1xx_HAL_Driver/Inc/stm32f1xx_hal_gpio.h"
 157              		.file 7 "Drivers/STM32F1xx_HAL_Driver/Inc/stm32f1xx_hal_can.h"
 158              		.file 8 "Libs/can_al/can_al.h"
 159              		.file 9 "Drivers/STM32F1xx_HAL_Driver/Inc/stm32f1xx_hal.h"
ARM GAS  /tmp/ccRR30nG.s 			page 5


DEFINED SYMBOLS
                            *ABS*:00000000 Cu_main.c
     /tmp/ccRR30nG.s:19     .text.Cu_main:00000000 $t
     /tmp/ccRR30nG.s:25     .text.Cu_main:00000000 Cu_main
     /tmp/ccRR30nG.s:125    .text.Cu_main:00000078 $d
     /tmp/ccRR30nG.s:138    .bss.CAN:00000000 CAN
     /tmp/ccRR30nG.s:135    .bss.CAN:00000000 $d
     /tmp/ccRR30nG.s:141    .rodata:00000000 $d

UNDEFINED SYMBOLS
HAL_GPIO_WritePin
CAN_Add_Filter_Discrete
CAN_Start
HAL_GPIO_TogglePin
HAL_Delay
CAN_ISR_FLAG
