ARM GAS  /tmp/ccPn06B8.s 			page 1


   1              		.cpu cortex-m3
   2              		.arch armv7-m
   3              		.fpu softvfp
   4              		.eabi_attribute 20, 1
   5              		.eabi_attribute 21, 1
   6              		.eabi_attribute 23, 3
   7              		.eabi_attribute 24, 1
   8              		.eabi_attribute 25, 1
   9              		.eabi_attribute 26, 1
  10              		.eabi_attribute 30, 1
  11              		.eabi_attribute 34, 1
  12              		.eabi_attribute 18, 4
  13              		.file	"gpio.c"
  14              		.text
  15              	.Ltext0:
  16              		.cfi_sections	.debug_frame
  17              		.file 1 "Src/gpio.c"
  18              		.section	.text.MX_GPIO_Init,"ax",%progbits
  19              		.align	1
  20              		.global	MX_GPIO_Init
  21              		.syntax unified
  22              		.thumb
  23              		.thumb_func
  25              	MX_GPIO_Init:
  26              	.LFB65:
   1:Src/gpio.c    **** /* USER CODE BEGIN Header */
   2:Src/gpio.c    **** /**
   3:Src/gpio.c    ****   ******************************************************************************
   4:Src/gpio.c    ****   * @file    gpio.c
   5:Src/gpio.c    ****   * @brief   This file provides code for the configuration
   6:Src/gpio.c    ****   *          of all used GPIO pins.
   7:Src/gpio.c    ****   ******************************************************************************
   8:Src/gpio.c    ****   * @attention
   9:Src/gpio.c    ****   *
  10:Src/gpio.c    ****   * Copyright (c) 2025 STMicroelectronics.
  11:Src/gpio.c    ****   * All rights reserved.
  12:Src/gpio.c    ****   *
  13:Src/gpio.c    ****   * This software is licensed under terms that can be found in the LICENSE file
  14:Src/gpio.c    ****   * in the root directory of this software component.
  15:Src/gpio.c    ****   * If no LICENSE file comes with this software, it is provided AS-IS.
  16:Src/gpio.c    ****   *
  17:Src/gpio.c    ****   ******************************************************************************
  18:Src/gpio.c    ****   */
  19:Src/gpio.c    **** /* USER CODE END Header */
  20:Src/gpio.c    **** 
  21:Src/gpio.c    **** /* Includes ------------------------------------------------------------------*/
  22:Src/gpio.c    **** #include "gpio.h"
  23:Src/gpio.c    **** 
  24:Src/gpio.c    **** /* USER CODE BEGIN 0 */
  25:Src/gpio.c    **** 
  26:Src/gpio.c    **** /* USER CODE END 0 */
  27:Src/gpio.c    **** 
  28:Src/gpio.c    **** /*----------------------------------------------------------------------------*/
  29:Src/gpio.c    **** /* Configure GPIO                                                             */
  30:Src/gpio.c    **** /*----------------------------------------------------------------------------*/
  31:Src/gpio.c    **** /* USER CODE BEGIN 1 */
  32:Src/gpio.c    **** 
ARM GAS  /tmp/ccPn06B8.s 			page 2


  33:Src/gpio.c    **** /* USER CODE END 1 */
  34:Src/gpio.c    **** 
  35:Src/gpio.c    **** /** Configure pins as
  36:Src/gpio.c    ****         * Analog
  37:Src/gpio.c    ****         * Input
  38:Src/gpio.c    ****         * Output
  39:Src/gpio.c    ****         * EVENT_OUT
  40:Src/gpio.c    ****         * EXTI
  41:Src/gpio.c    **** */
  42:Src/gpio.c    **** void MX_GPIO_Init(void)
  43:Src/gpio.c    **** {
  27              		.loc 1 43 1 view -0
  28              		.cfi_startproc
  29              		@ args = 0, pretend = 0, frame = 32
  30              		@ frame_needed = 0, uses_anonymous_args = 0
  31 0000 10B5     		push	{r4, lr}
  32              	.LCFI0:
  33              		.cfi_def_cfa_offset 8
  34              		.cfi_offset 4, -8
  35              		.cfi_offset 14, -4
  36 0002 88B0     		sub	sp, sp, #32
  37              	.LCFI1:
  38              		.cfi_def_cfa_offset 40
  44:Src/gpio.c    **** 
  45:Src/gpio.c    ****   GPIO_InitTypeDef GPIO_InitStruct = {0};
  39              		.loc 1 45 3 view .LVU1
  40              		.loc 1 45 20 is_stmt 0 view .LVU2
  41 0004 04A9     		add	r1, sp, #16
  42 0006 0024     		movs	r4, #0
  43 0008 0494     		str	r4, [sp, #16]
  44 000a 4C60     		str	r4, [r1, #4]
  45 000c 8C60     		str	r4, [r1, #8]
  46 000e CC60     		str	r4, [r1, #12]
  46:Src/gpio.c    **** 
  47:Src/gpio.c    ****   /* GPIO Ports Clock Enable */
  48:Src/gpio.c    ****   __HAL_RCC_GPIOC_CLK_ENABLE();
  47              		.loc 1 48 3 is_stmt 1 view .LVU3
  48              	.LBB2:
  49              		.loc 1 48 3 view .LVU4
  50              		.loc 1 48 3 view .LVU5
  51 0010 1B4B     		ldr	r3, .L3
  52 0012 9A69     		ldr	r2, [r3, #24]
  53 0014 42F01002 		orr	r2, r2, #16
  54 0018 9A61     		str	r2, [r3, #24]
  55              		.loc 1 48 3 view .LVU6
  56 001a 9A69     		ldr	r2, [r3, #24]
  57 001c 02F01002 		and	r2, r2, #16
  58 0020 0092     		str	r2, [sp]
  59              		.loc 1 48 3 view .LVU7
  60 0022 009A     		ldr	r2, [sp]
  61              	.LBE2:
  62              		.loc 1 48 3 view .LVU8
  49:Src/gpio.c    ****   __HAL_RCC_GPIOD_CLK_ENABLE();
  63              		.loc 1 49 3 view .LVU9
  64              	.LBB3:
  65              		.loc 1 49 3 view .LVU10
  66              		.loc 1 49 3 view .LVU11
ARM GAS  /tmp/ccPn06B8.s 			page 3


  67 0024 9A69     		ldr	r2, [r3, #24]
  68 0026 42F02002 		orr	r2, r2, #32
  69 002a 9A61     		str	r2, [r3, #24]
  70              		.loc 1 49 3 view .LVU12
  71 002c 9A69     		ldr	r2, [r3, #24]
  72 002e 02F02002 		and	r2, r2, #32
  73 0032 0192     		str	r2, [sp, #4]
  74              		.loc 1 49 3 view .LVU13
  75 0034 019A     		ldr	r2, [sp, #4]
  76              	.LBE3:
  77              		.loc 1 49 3 view .LVU14
  50:Src/gpio.c    ****   __HAL_RCC_GPIOB_CLK_ENABLE();
  78              		.loc 1 50 3 view .LVU15
  79              	.LBB4:
  80              		.loc 1 50 3 view .LVU16
  81              		.loc 1 50 3 view .LVU17
  82 0036 9A69     		ldr	r2, [r3, #24]
  83 0038 42F00802 		orr	r2, r2, #8
  84 003c 9A61     		str	r2, [r3, #24]
  85              		.loc 1 50 3 view .LVU18
  86 003e 9A69     		ldr	r2, [r3, #24]
  87 0040 02F00802 		and	r2, r2, #8
  88 0044 0292     		str	r2, [sp, #8]
  89              		.loc 1 50 3 view .LVU19
  90 0046 029A     		ldr	r2, [sp, #8]
  91              	.LBE4:
  92              		.loc 1 50 3 view .LVU20
  51:Src/gpio.c    ****   __HAL_RCC_GPIOA_CLK_ENABLE();
  93              		.loc 1 51 3 view .LVU21
  94              	.LBB5:
  95              		.loc 1 51 3 view .LVU22
  96              		.loc 1 51 3 view .LVU23
  97 0048 9A69     		ldr	r2, [r3, #24]
  98 004a 42F00402 		orr	r2, r2, #4
  99 004e 9A61     		str	r2, [r3, #24]
 100              		.loc 1 51 3 view .LVU24
 101 0050 9B69     		ldr	r3, [r3, #24]
 102 0052 03F00403 		and	r3, r3, #4
 103 0056 0393     		str	r3, [sp, #12]
 104              		.loc 1 51 3 view .LVU25
 105 0058 039B     		ldr	r3, [sp, #12]
 106              	.LBE5:
 107              		.loc 1 51 3 view .LVU26
  52:Src/gpio.c    **** 
  53:Src/gpio.c    ****   /*Configure GPIO pins : RPM0_Pin RPM1_Pin RPM2_Pin RPM3_Pin */
  54:Src/gpio.c    ****   GPIO_InitStruct.Pin = RPM0_Pin|RPM1_Pin|RPM2_Pin|RPM3_Pin;
 108              		.loc 1 54 3 view .LVU27
 109              		.loc 1 54 23 is_stmt 0 view .LVU28
 110 005a 4FF47053 		mov	r3, #15360
 111 005e 0493     		str	r3, [sp, #16]
  55:Src/gpio.c    ****   GPIO_InitStruct.Mode = GPIO_MODE_IT_FALLING;
 112              		.loc 1 55 3 is_stmt 1 view .LVU29
 113              		.loc 1 55 24 is_stmt 0 view .LVU30
 114 0060 084B     		ldr	r3, .L3+4
 115 0062 0593     		str	r3, [sp, #20]
  56:Src/gpio.c    ****   GPIO_InitStruct.Pull = GPIO_NOPULL;
 116              		.loc 1 56 3 is_stmt 1 view .LVU31
ARM GAS  /tmp/ccPn06B8.s 			page 4


  57:Src/gpio.c    ****   HAL_GPIO_Init(GPIOB, &GPIO_InitStruct);
 117              		.loc 1 57 3 view .LVU32
 118 0064 0848     		ldr	r0, .L3+8
 119 0066 FFF7FEFF 		bl	HAL_GPIO_Init
 120              	.LVL0:
  58:Src/gpio.c    **** 
  59:Src/gpio.c    ****   /* EXTI interrupt init*/
  60:Src/gpio.c    ****   HAL_NVIC_SetPriority(EXTI15_10_IRQn, 0, 0);
 121              		.loc 1 60 3 view .LVU33
 122 006a 2246     		mov	r2, r4
 123 006c 2146     		mov	r1, r4
 124 006e 2820     		movs	r0, #40
 125 0070 FFF7FEFF 		bl	HAL_NVIC_SetPriority
 126              	.LVL1:
  61:Src/gpio.c    ****   HAL_NVIC_EnableIRQ(EXTI15_10_IRQn);
 127              		.loc 1 61 3 view .LVU34
 128 0074 2820     		movs	r0, #40
 129 0076 FFF7FEFF 		bl	HAL_NVIC_EnableIRQ
 130              	.LVL2:
  62:Src/gpio.c    **** 
  63:Src/gpio.c    **** }
 131              		.loc 1 63 1 is_stmt 0 view .LVU35
 132 007a 08B0     		add	sp, sp, #32
 133              	.LCFI2:
 134              		.cfi_def_cfa_offset 8
 135              		@ sp needed
 136 007c 10BD     		pop	{r4, pc}
 137              	.L4:
 138 007e 00BF     		.align	2
 139              	.L3:
 140 0080 00100240 		.word	1073876992
 141 0084 00002110 		.word	270598144
 142 0088 000C0140 		.word	1073810432
 143              		.cfi_endproc
 144              	.LFE65:
 146              		.text
 147              	.Letext0:
 148              		.file 2 "Drivers/CMSIS/Device/ST/STM32F1xx/Include/stm32f103xb.h"
 149              		.file 3 "/opt/gcc-arm/arm-none-eabi/include/machine/_default_types.h"
 150              		.file 4 "/opt/gcc-arm/arm-none-eabi/include/sys/_stdint.h"
 151              		.file 5 "Drivers/STM32F1xx_HAL_Driver/Inc/stm32f1xx_hal_gpio.h"
 152              		.file 6 "Drivers/STM32F1xx_HAL_Driver/Inc/stm32f1xx_hal_cortex.h"
ARM GAS  /tmp/ccPn06B8.s 			page 5

